target datalayout = "e-m:e-p270:32:32-p271:32:32-p272:64:64-i64:64-i128:128-f80:128-n8:16:32:64-S128"
target triple = "x86_64-pc-linux-gnu"

@tcg_env = external global ptr, align 8

; Function Attrs: nounwind sspstrong uwtable
define internal void @expand_2i_vec(i32 noundef %0, i32 noundef %1, i32 noundef %2, i32 noundef %3, i32 noundef %4, i32 noundef %5, i64 noundef %6, i1 noundef zeroext %7, ptr noundef %8) #0 {
  %10 = alloca i32, align 4
  %11 = alloca i32, align 4
  %12 = alloca i32, align 4
  %13 = alloca i32, align 4
  %14 = alloca i32, align 4
  %15 = alloca i32, align 4
  %16 = alloca i64, align 8
  %17 = alloca i8, align 1
  %18 = alloca ptr, align 8
  %19 = alloca i32, align 4
  %20 = alloca ptr, align 8
  %21 = alloca ptr, align 8
  store i32 %0, ptr %10, align 4
  store i32 %1, ptr %11, align 4
  store i32 %2, ptr %12, align 4
  store i32 %3, ptr %13, align 4
  store i32 %4, ptr %14, align 4
  store i32 %5, ptr %15, align 4
  store i64 %6, ptr %16, align 8
  %22 = zext i1 %7 to i8
  store i8 %22, ptr %17, align 1
  store ptr %8, ptr %18, align 8
  call void @llvm.lifetime.start.p0(i64 4, ptr %19) #10
  store i32 0, ptr %19, align 4
  br label %23

23:                                               ; preds = %60, %9
  %24 = load i32, ptr %19, align 4
  %25 = load i32, ptr %13, align 4
  %26 = icmp ult i32 %24, %25
  br i1 %26, label %28, label %27

27:                                               ; preds = %23
  call void @llvm.lifetime.end.p0(i64 4, ptr %19) #10
  br label %64

28:                                               ; preds = %23
  call void @llvm.lifetime.start.p0(i64 8, ptr %20) #10
  %29 = load i32, ptr %15, align 4
  %30 = call ptr @tcg_temp_new_vec(i32 noundef %29)
  store ptr %30, ptr %20, align 8
  call void @llvm.lifetime.start.p0(i64 8, ptr %21) #10
  %31 = load i32, ptr %15, align 4
  %32 = call ptr @tcg_temp_new_vec(i32 noundef %31)
  store ptr %32, ptr %21, align 8
  %33 = load ptr, ptr %20, align 8
  %34 = load ptr, ptr @tcg_env, align 8
  %35 = load i32, ptr %12, align 4
  %36 = load i32, ptr %19, align 4
  %37 = add i32 %35, %36
  %38 = zext i32 %37 to i64
  call void @tcg_gen_ld_vec(ptr noundef %33, ptr noundef %34, i64 noundef %38)
  %39 = load i8, ptr %17, align 1, !range !5, !noundef !6
  %40 = trunc i8 %39 to i1
  br i1 %40, label %41, label %48

41:                                               ; preds = %28
  %42 = load ptr, ptr %21, align 8
  %43 = load ptr, ptr @tcg_env, align 8
  %44 = load i32, ptr %11, align 4
  %45 = load i32, ptr %19, align 4
  %46 = add i32 %44, %45
  %47 = zext i32 %46 to i64
  call void @tcg_gen_ld_vec(ptr noundef %42, ptr noundef %43, i64 noundef %47)
  br label %48

48:                                               ; preds = %41, %28
  %49 = load ptr, ptr %18, align 8
  %50 = load i32, ptr %10, align 4
  %51 = load ptr, ptr %21, align 8
  %52 = load ptr, ptr %20, align 8
  %53 = load i64, ptr %16, align 8
  call void %49(i32 noundef %50, ptr noundef %51, ptr noundef %52, i64 noundef %53)
  %54 = load ptr, ptr %21, align 8
  %55 = load ptr, ptr @tcg_env, align 8
  %56 = load i32, ptr %11, align 4
  %57 = load i32, ptr %19, align 4
  %58 = add i32 %56, %57
  %59 = zext i32 %58 to i64
  call void @tcg_gen_st_vec(ptr noundef %54, ptr noundef %55, i64 noundef %59)
  call void @llvm.lifetime.end.p0(i64 8, ptr %21) #10
  call void @llvm.lifetime.end.p0(i64 8, ptr %20) #10
  br label %60

60:                                               ; preds = %48
  %61 = load i32, ptr %14, align 4
  %62 = load i32, ptr %19, align 4
  %63 = add i32 %62, %61
  store i32 %63, ptr %19, align 4
  br label %23, !llvm.loop !11

64:                                               ; preds = %27
  ret void
}