; Function Attrs: nounwind sspstrong uwtable
define internal fastcc void @expand_2i_vec(i32 noundef range(i32 0, 256) %0, i32 noundef %1, i32 noundef %2, i32 noundef %3, i32 noundef range(i32 8, 33) %4, i32 noundef range(i32 3, 6) %5, i64 noundef %6, i1 noundef zeroext %7, ptr noundef readonly captures(none) %8) unnamed_addr #2 {
  %.not = icmp eq i32 %3, 0
  br i1 %.not, label %._crit_edge, label %.lr.ph

.lr.ph:                                           ; preds = %9
  br i1 %7, label %.lr.ph.split.us, label %.lr.ph.split

.lr.ph.split.us:                                  ; preds = %.lr.ph, %.lr.ph.split.us
  %.020.us = phi i32 [ %19, %.lr.ph.split.us ], [ 0, %.lr.ph ]
  %10 = tail call ptr @tcg_temp_new_vec(i32 noundef %5) #10
  %11 = tail call ptr @tcg_temp_new_vec(i32 noundef %5) #10
  %12 = load ptr, ptr @tcg_env, align 8
  %13 = add i32 %.020.us, %2
  %14 = zext i32 %13 to i64
  tail call void @tcg_gen_ld_vec(ptr noundef %10, ptr noundef %12, i64 noundef %14) #10
  %15 = load ptr, ptr @tcg_env, align 8
  %16 = add i32 %.020.us, %1
  %17 = zext i32 %16 to i64
  tail call void @tcg_gen_ld_vec(ptr noundef %11, ptr noundef %15, i64 noundef %17) #10
  tail call void %8(i32 noundef %0, ptr noundef %11, ptr noundef %10, i64 noundef %6) #10
  %18 = load ptr, ptr @tcg_env, align 8
  tail call void @tcg_gen_st_vec(ptr noundef %11, ptr noundef %18, i64 noundef %17) #10
  %19 = add i32 %.020.us, %4
  %20 = icmp ult i32 %19, %3
  br i1 %20, label %.lr.ph.split.us, label %._crit_edge, !llvm.loop !12

._crit_edge:                                      ; preds = %.lr.ph.split, %.lr.ph.split.us, %9
  ret void

.lr.ph.split:                                     ; preds = %.lr.ph, %.lr.ph.split
  %.020 = phi i32 [ %29, %.lr.ph.split ], [ 0, %.lr.ph ]
  %21 = tail call ptr @tcg_temp_new_vec(i32 noundef %5) #10
  %22 = tail call ptr @tcg_temp_new_vec(i32 noundef %5) #10
  %23 = load ptr, ptr @tcg_env, align 8
  %24 = add i32 %.020, %2
  %25 = zext i32 %24 to i64
  tail call void @tcg_gen_ld_vec(ptr noundef %21, ptr noundef %23, i64 noundef %25) #10
  tail call void %8(i32 noundef %0, ptr noundef %22, ptr noundef %21, i64 noundef %6) #10
  %26 = load ptr, ptr @tcg_env, align 8
  %27 = add i32 %.020, %1
  %28 = zext i32 %27 to i64
  tail call void @tcg_gen_st_vec(ptr noundef %22, ptr noundef %26, i64 noundef %28) #10
  %29 = add i32 %.020, %4
  %30 = icmp ult i32 %29, %3
  br i1 %30, label %.lr.ph.split, label %._crit_edge, !llvm.loop !12
}